target datalayout = "e-m:e-p270:32:32-p271:32:32-p272:64:64-i64:64-i128:128-f80:128-n8:16:32:64-S128"
target triple = "x86_64-pc-linux-gnu"

%struct.Qureg = type { i32, i32, i32, i64, i64, i32, i32, %struct.ComplexArray, %struct.ComplexArray, %struct.ComplexArray, ptr, ptr, ptr, ptr, ptr, ptr }
%struct.ComplexArray = type { ptr, ptr }
%struct.Complex = type { double, double }

@__func__.setWeightedQureg = private unnamed_addr constant [17 x i8] c"setWeightedQureg\00", align 1
@.str.18 = private unnamed_addr constant [100 x i8] c"Here, the register was modified to an undisclosed and possibly unphysical state (setWeightedQureg).\00", align 1

; Function Attrs: nounwind uwtable
define void @setWeightedQureg(double %0, double %1, ptr noundef byval(%struct.Qureg) align 8 %2, double %3, double %4, ptr noundef byval(%struct.Qureg) align 8 %5, double %6, double %7, ptr noundef byval(%struct.Qureg) align 8 %8) #0 {
  %10 = alloca %struct.Complex, align 8
  %11 = alloca %struct.Complex, align 8
  %12 = alloca %struct.Complex, align 8
  %13 = getelementptr inbounds nuw { double, double }, ptr %10, i32 0, i32 0
  store double %0, ptr %13, align 8
  %14 = getelementptr inbounds nuw { double, double }, ptr %10, i32 0, i32 1
  store double %1, ptr %14, align 8
  %15 = getelementptr inbounds nuw { double, double }, ptr %11, i32 0, i32 0
  store double %3, ptr %15, align 8
  %16 = getelementptr inbounds nuw { double, double }, ptr %11, i32 0, i32 1
  store double %4, ptr %16, align 8
  %17 = getelementptr inbounds nuw { double, double }, ptr %12, i32 0, i32 0
  store double %6, ptr %17, align 8
  %18 = getelementptr inbounds nuw { double, double }, ptr %12, i32 0, i32 1
  store double %7, ptr %18, align 8
  call void @validateMatchingQuregTypes(ptr noundef byval(%struct.Qureg) align 8 %2, ptr noundef byval(%struct.Qureg) align 8 %5, ptr noundef @__func__.setWeightedQureg)
  call void @validateMatchingQuregTypes(ptr noundef byval(%struct.Qureg) align 8 %2, ptr noundef byval(%struct.Qureg) align 8 %8, ptr noundef @__func__.setWeightedQureg)
  call void @validateMatchingQuregDims(ptr noundef byval(%struct.Qureg) align 8 %2, ptr noundef byval(%struct.Qureg) align 8 %5, ptr noundef @__func__.setWeightedQureg)
  call void @validateMatchingQuregDims(ptr noundef byval(%struct.Qureg) align 8 %2, ptr noundef byval(%struct.Qureg) align 8 %8, ptr noundef @__func__.setWeightedQureg)
  %19 = getelementptr inbounds nuw { double, double }, ptr %10, i32 0, i32 0
  %20 = load double, ptr %19, align 8
  %21 = getelementptr inbounds nuw { double, double }, ptr %10, i32 0, i32 1
  %22 = load double, ptr %21, align 8
  %23 = getelementptr inbounds nuw { double, double }, ptr %11, i32 0, i32 0
  %24 = load double, ptr %23, align 8
  %25 = getelementptr inbounds nuw { double, double }, ptr %11, i32 0, i32 1
  %26 = load double, ptr %25, align 8
  %27 = getelementptr inbounds nuw { double, double }, ptr %12, i32 0, i32 0
  %28 = load double, ptr %27, align 8
  %29 = getelementptr inbounds nuw { double, double }, ptr %12, i32 0, i32 1
  %30 = load double, ptr %29, align 8
  call void @statevec_setWeightedQureg(double %20, double %22, ptr noundef byval(%struct.Qureg) align 8 %2, double %24, double %26, ptr noundef byval(%struct.Qureg) align 8 %5, double %28, double %30, ptr noundef byval(%struct.Qureg) align 8 %8)
  call void (ptr, ptr, ...) @qasm_recordComment(ptr noundef byval(%struct.Qureg) align 8 %8, ptr noundef @.str.18)
  ret void
}