; Function Attrs: nounwind uwtable
define void @setWeightedQureg(double %0, double %1, ptr noundef readonly byval(%struct.Qureg) align 8 captures(none) %2, double %3, double %4, ptr noundef readonly byval(%struct.Qureg) align 8 captures(none) %5, double %6, double %7, ptr noundef readonly byval(%struct.Qureg) align 8 captures(none) %8) local_unnamed_addr #0 {
  tail call void @validateMatchingQuregTypes(ptr noundef nonnull byval(%struct.Qureg) align 8 %2, ptr noundef nonnull byval(%struct.Qureg) align 8 %5, ptr noundef nonnull @__func__.setWeightedQureg) #17
  tail call void @validateMatchingQuregTypes(ptr noundef nonnull byval(%struct.Qureg) align 8 %2, ptr noundef nonnull byval(%struct.Qureg) align 8 %8, ptr noundef nonnull @__func__.setWeightedQureg) #17
  tail call void @validateMatchingQuregDims(ptr noundef nonnull byval(%struct.Qureg) align 8 %2, ptr noundef nonnull byval(%struct.Qureg) align 8 %5, ptr noundef nonnull @__func__.setWeightedQureg) #17
  tail call void @validateMatchingQuregDims(ptr noundef nonnull byval(%struct.Qureg) align 8 %2, ptr noundef nonnull byval(%struct.Qureg) align 8 %8, ptr noundef nonnull @__func__.setWeightedQureg) #17
  tail call void @statevec_setWeightedQureg(double %0, double %1, ptr noundef nonnull byval(%struct.Qureg) align 8 %2, double %3, double %4, ptr noundef nonnull byval(%struct.Qureg) align 8 %5, double %6, double %7, ptr noundef nonnull byval(%struct.Qureg) align 8 %8) #17
  tail call void (ptr, ptr, ...) @qasm_recordComment(ptr noundef nonnull byval(%struct.Qureg) align 8 %8, ptr noundef nonnull @.str.18) #17
  ret void
}